; Function Attrs: mustprogress uwtable
define internal noundef float @_ZN12_GLOBAL__N_110tab_anglesIL18BondedKernelFlavor3EEEfiPKiPK9t_iparamsPA3_KfPA4_fPA3_fPK5t_pbcfPfN3gmx8ArrayRefIS7_EEP8t_fcdataP12t_disresdataP12t_oriresdataPi(i32 noundef %0, ptr nocapture noundef readonly %1, ptr nocapture noundef readonly %2, ptr noundef %3, ptr nocapture noundef %4, ptr nocapture readnone %5, ptr noundef %6, float noundef %7, ptr nocapture noundef %8, ptr nocapture noundef readnone byval(%"class.gmx::ArrayRef") align 8 %9, ptr nocapture noundef readonly %10, ptr nocapture readnone %11, ptr nocapture readnone %12, ptr nocapture readnone %13) #4 {
  %15 = alloca i32, align 4
  %16 = alloca i32, align 4
  %17 = alloca [3 x float], align 4
  %18 = alloca [3 x float], align 4
  %19 = alloca float, align 4
  %20 = alloca float, align 4
  %21 = alloca float, align 4
  %22 = icmp sgt i32 %0, 0
  br i1 %22, label %.lr.ph, label %._crit_edge

.lr.ph:                                           ; preds = %14
  %23 = getelementptr inbounds i8, ptr %10, i64 24
  %24 = getelementptr inbounds i8, ptr %18, i64 4
  %25 = getelementptr inbounds i8, ptr %18, i64 8
  %26 = getelementptr inbounds i8, ptr %17, i64 4
  %27 = getelementptr inbounds i8, ptr %17, i64 8
  br label %28

28:                                               ; preds = %.lr.ph, %.loopexit
  %indvars.iv74 = phi i64 [ 0, %.lr.ph ], [ %indvars.iv.next75, %.loopexit ]
  %.06771 = phi float [ 0.000000e+00, %.lr.ph ], [ %59, %.loopexit ]
  %29 = getelementptr inbounds i32, ptr %1, i64 %indvars.iv74
  %30 = load i32, ptr %29, align 4
  %31 = getelementptr i8, ptr %29, i64 4
  %32 = load i32, ptr %31, align 4
  %33 = or disjoint i64 %indvars.iv74, 3
  %34 = getelementptr i8, ptr %29, i64 8
  %35 = load i32, ptr %34, align 4
  %indvars.iv.next75 = add nuw nsw i64 %indvars.iv74, 4
  %36 = getelementptr inbounds i32, ptr %1, i64 %33
  %37 = load i32, ptr %36, align 4
  %38 = sext i32 %32 to i64
  %39 = getelementptr inbounds [3 x float], ptr %3, i64 %38
  %40 = sext i32 %35 to i64
  %41 = getelementptr inbounds [3 x float], ptr %3, i64 %40
  %42 = sext i32 %37 to i64
  %43 = getelementptr inbounds [3 x float], ptr %3, i64 %42
  %44 = call noundef float @_Z10bond_anglePKfS0_S0_PK5t_pbcPfS4_S4_PiS5_(ptr noundef %39, ptr noundef %41, ptr noundef %43, ptr noundef %6, ptr noundef nonnull %17, ptr noundef nonnull %18, ptr noundef nonnull %19, ptr noundef nonnull %15, ptr noundef nonnull %16)
  %45 = sext i32 %30 to i64
  %46 = getelementptr inbounds %union.t_iparams, ptr %2, i64 %45
  %47 = load i32, ptr %46, align 4
  %48 = sext i32 %47 to i64
  %49 = load ptr, ptr %23, align 8
  %50 = getelementptr inbounds %struct.bondedtable_t, ptr %49, i64 %48
  %51 = getelementptr inbounds i8, ptr %46, i64 4
  %52 = load float, ptr %51, align 4
  %53 = getelementptr inbounds i8, ptr %46, i64 8
  %54 = load float, ptr %53, align 4
  %55 = call fastcc noundef float @_ZN12_GLOBAL__N_110bonded_tabEPKciPK13bondedtable_tffffPfS5_(ptr noundef nonnull @.str.11, i32 noundef %47, ptr noundef nonnull %50, float noundef %52, float noundef %54, float noundef %44, float noundef %7, ptr noundef nonnull %21, ptr noundef nonnull %20)
  %56 = load float, ptr %8, align 4
  %57 = fadd float %55, %56
  store float %57, ptr %8, align 4
  %58 = load float, ptr %21, align 4
  %59 = fadd float %.06771, %58
  %60 = load float, ptr %19, align 4
  %61 = fmul float %60, %60
  %62 = fcmp olt float %61, 1.000000e+00
  br i1 %62, label %63, label %.loopexit

63:                                               ; preds = %28
  %64 = load float, ptr %20, align 4
  %65 = fsub float 1.000000e+00, %61
  %66 = call noundef float @sqrtf(float noundef %65) #22
  %67 = fdiv float 1.000000e+00, %66
  %68 = fmul float %64, %67
  %69 = load float, ptr %18, align 4
  %70 = load float, ptr %24, align 4
  %71 = fmul float %70, %70
  %72 = call float @llvm.fmuladd.f32(float %69, float %69, float %71)
  %73 = load float, ptr %25, align 4
  %74 = call noundef float @llvm.fmuladd.f32(float %73, float %73, float %72)
  %75 = load float, ptr %17, align 4
  %76 = load float, ptr %26, align 4
  %77 = fmul float %76, %76
  %78 = call float @llvm.fmuladd.f32(float %75, float %75, float %77)
  %79 = load float, ptr %27, align 4
  %80 = call noundef float @llvm.fmuladd.f32(float %79, float %79, float %78)
  %81 = fmul float %74, %80
  %82 = call noundef float @sqrtf(float noundef %81) #22
  %83 = fdiv float 1.000000e+00, %82
  %84 = fmul float %68, %83
  %85 = fneg float %68
  %86 = fmul float %60, %85
  %87 = fdiv float %86, %80
  %88 = fdiv float %86, %74
  br label %89

89:                                               ; preds = %63, %89
  %indvars.iv = phi i64 [ 0, %63 ], [ %indvars.iv.next, %89 ]
  %90 = getelementptr inbounds [3 x float], ptr %18, i64 0, i64 %indvars.iv
  %91 = load float, ptr %90, align 4
  %92 = getelementptr inbounds [3 x float], ptr %17, i64 0, i64 %indvars.iv
  %93 = load float, ptr %92, align 4
  %94 = fmul float %87, %93
  %95 = call float @llvm.fmuladd.f32(float %84, float %91, float %94)
  %96 = fmul float %88, %91
  %97 = call float @llvm.fmuladd.f32(float %84, float %93, float %96)
  %98 = fadd float %97, %95
  %99 = getelementptr inbounds [4 x float], ptr %4, i64 %38, i64 %indvars.iv
  %100 = load float, ptr %99, align 4
  %101 = fsub float %100, %95
  store float %101, ptr %99, align 4
  %102 = getelementptr inbounds [4 x float], ptr %4, i64 %40, i64 %indvars.iv
  %103 = load float, ptr %102, align 4
  %104 = fadd float %103, %98
  store float %104, ptr %102, align 4
  %105 = getelementptr inbounds [4 x float], ptr %4, i64 %42, i64 %indvars.iv
  %106 = load float, ptr %105, align 4
  %107 = fsub float %106, %97
  store float %107, ptr %105, align 4
  %indvars.iv.next = add nuw nsw i64 %indvars.iv, 1
  %exitcond.not = icmp eq i64 %indvars.iv.next, 3
  br i1 %exitcond.not, label %.loopexit, label %89, !llvm.loop !188

.loopexit:                                        ; preds = %89, %28
  %108 = trunc nuw i64 %indvars.iv.next75 to i32
  %109 = icmp slt i32 %108, %0
  br i1 %109, label %28, label %._crit_edge, !llvm.loop !189

._crit_edge:                                      ; preds = %.loopexit, %14
  %.067.lcssa = phi float [ 0.000000e+00, %14 ], [ %59, %.loopexit ]
  ret float %.067.lcssa
}